; Function Attrs: mustprogress ssp uwtable
define void @_ZNK6open3d13visualization16PointCloudPicker9GetCenterEv(ptr dead_on_unwind noalias writable sret(%"class.Eigen::Matrix") align 8 %0, ptr noundef nonnull readonly align 8 captures(none) dereferenceable(88) %1) unnamed_addr #3 align 2 {
  %3 = getelementptr inbounds nuw i8, ptr %1, i64 48
  %4 = load ptr, ptr %3, align 8, !tbaa !30
  %.not = icmp eq ptr %4, null
  br i1 %.not, label %9, label %5

5:                                                ; preds = %2
  %6 = load ptr, ptr %4, align 8, !tbaa !4
  %7 = getelementptr inbounds nuw i8, ptr %6, i64 48
  %8 = load ptr, ptr %7, align 8
  tail call void %8(ptr dead_on_unwind writable sret(%"class.Eigen::Matrix") align 8 %0, ptr noundef nonnull align 8 dereferenceable(144) %4)
  br label %10

9:                                                ; preds = %2
  tail call void @llvm.memset.p0.i64(ptr noundef nonnull align 8 dereferenceable(24) %0, i8 0, i64 24, i1 false)
  br label %10

10:                                               ; preds = %9, %5
  ret void
}